target datalayout = "e-m:e-p270:32:32-p271:32:32-p272:64:64-i64:64-i128:128-f80:128-n8:16:32:64-S128"
target triple = "x86_64-pc-linux-gnu"

%"struct.folly::operator_delete_fn" = type { i8 }
%"struct.folly::detail::op_del_library_fn_" = type { i8 }
%"class.folly::detail::CancellationState" = type { ptr, %"struct.std::atomic", ptr, %"class.std::thread::id" }
%"struct.std::atomic" = type { %"struct.std::__atomic_base" }
%"struct.std::__atomic_base" = type { i64 }
%"class.std::thread::id" = type { i64 }
%"class.folly::detail::MergingCancellationState" = type { %"class.folly::detail::CancellationState", ptr, [8 x i8] }

@_ZN5folly15operator_deleteE = linkonce_odr constant %"struct.folly::operator_delete_fn" undef, comdat, align 1
@_ZN5folly6detail7op_del_ILb1ELb0EEE = linkonce_odr constant %"struct.folly::detail::op_del_library_fn_" zeroinitializer, comdat, align 1

; Function Attrs: alwaysinline mustprogress nounwind uwtable
define linkonce_odr hidden void @_ZNK5folly6detail18op_del_library_fn_clIJRKPvRKmEEEDTclgsondlspscT_fp_EEDpOS8_(ptr noundef nonnull align 1 dereferenceable(1) %0, ptr noundef nonnull align 8 dereferenceable(8) %1, ptr noundef nonnull align 8 dereferenceable(8) %2) #8 comdat align 2 {
  %4 = alloca ptr, align 8
  %5 = alloca ptr, align 8
  %6 = alloca ptr, align 8
  store ptr %0, ptr %4, align 8, !tbaa !215
  store ptr %1, ptr %5, align 8, !tbaa !75
  store ptr %2, ptr %6, align 8, !tbaa !76
  %7 = load ptr, ptr %5, align 8, !tbaa !75
  %8 = load ptr, ptr %7, align 8, !tbaa !75
  %9 = load ptr, ptr %6, align 8, !tbaa !76
  %10 = load i64, ptr %9, align 8, !tbaa !33
  call void @_ZdlPvm(ptr noundef %8, i64 noundef %10) #20
  ret void
}

; Function Attrs: noinline noreturn nounwind uwtable
define linkonce_odr hidden void @__clang_call_terminate(ptr noundef %0) #3 comdat {
  %2 = call ptr @__cxa_begin_catch(ptr %0) #20
  call void @_ZSt9terminatev() #22
  unreachable
}

; Function Attrs: alwaysinline mustprogress nounwind uwtable
define linkonce_odr hidden void @_ZN5folly6detail16do_op_del_sized_ILb1EJEEEvPvmDpKT0_(ptr noundef %0, i64 noundef %1) #8 comdat {
  %3 = alloca ptr, align 8
  %4 = alloca i64, align 8
  store ptr %0, ptr %3, align 8, !tbaa !75
  store i64 %1, ptr %4, align 8, !tbaa !33
  call void @_ZNK5folly6detail18op_del_library_fn_clIJRKPvRKmEEEDTclgsondlspscT_fp_EEDpOS8_(ptr noundef nonnull align 1 dereferenceable(1) @_ZN5folly6detail7op_del_ILb1ELb0EEE, ptr noundef nonnull align 8 dereferenceable(8) %3, ptr noundef nonnull align 8 dereferenceable(8) %4) #20
  ret void
}

; Function Attrs: alwaysinline mustprogress nounwind uwtable
define linkonce_odr hidden void @_ZNK5folly18operator_delete_fnclEPvm(ptr noundef nonnull align 1 dereferenceable(1) %0, ptr noundef %1, i64 noundef %2) #8 comdat align 2 personality ptr @__gxx_personality_v0 {
  %4 = alloca ptr, align 8
  %5 = alloca ptr, align 8
  %6 = alloca i64, align 8
  store ptr %0, ptr %4, align 8, !tbaa !174
  store ptr %1, ptr %5, align 8, !tbaa !75
  store i64 %2, ptr %6, align 8, !tbaa !33
  %7 = load ptr, ptr %5, align 8, !tbaa !75
  %8 = load i64, ptr %6, align 8, !tbaa !33
  invoke void @_ZN5folly6detail16do_op_del_sized_ILb1EJEEEvPvmDpKT0_(ptr noundef %7, i64 noundef %8)
          to label %9 unwind label %10

9:                                                ; preds = %3
  ret void

10:                                               ; preds = %3
  %11 = landingpad { ptr, i32 }
          catch ptr null
  %12 = extractvalue { ptr, i32 } %11, 0
  call void @__clang_call_terminate(ptr %12) #22
  unreachable
}

; Function Attrs: mustprogress nounwind uwtable
define void @_ZN5folly6detail24MergingCancellationState7destroyEv(ptr noundef nonnull align 16 dereferenceable(40) %0) #0 align 2 {
  %2 = alloca ptr, align 8
  %3 = alloca i64, align 8
  store ptr %0, ptr %2, align 8, !tbaa !12
  %4 = load ptr, ptr %2, align 8
  call void @llvm.lifetime.start.p0(i64 8, ptr %3) #20
  %5 = getelementptr inbounds nuw %"class.folly::detail::MergingCancellationState", ptr %4, i32 0, i32 1
  %6 = load ptr, ptr %5, align 16, !tbaa !109
  %7 = ptrtoint ptr %6 to i64
  %8 = ptrtoint ptr %4 to i64
  %9 = sub i64 %7, %8
  store i64 %9, ptr %3, align 8, !tbaa !33
  %10 = load ptr, ptr %4, align 16, !tbaa !14
  %11 = getelementptr inbounds ptr, ptr %10, i64 0
  %12 = load ptr, ptr %11, align 8
  call void %12(ptr noundef nonnull align 16 dereferenceable(40) %4) #20
  %13 = load i64, ptr %3, align 8, !tbaa !33
  call void @_ZNK5folly18operator_delete_fnclEPvm(ptr noundef nonnull align 1 dereferenceable(1) @_ZN5folly15operator_deleteE, ptr noundef %4, i64 noundef %13) #20
  call void @llvm.lifetime.end.p0(i64 8, ptr %3) #20
  ret void
}

; Function Attrs: alwaysinline mustprogress nounwind uwtable
define linkonce_odr noundef i64 @_ZNSt13__atomic_baseImE9fetch_subEmSt12memory_order(ptr noundef nonnull align 8 dereferenceable(8) %0, i64 noundef %1, i32 noundef %2) #8 comdat align 2 {
  %4 = alloca ptr, align 8
  %5 = alloca i64, align 8
  %6 = alloca i32, align 4
  %7 = alloca i64, align 8
  %8 = alloca i64, align 8
  store ptr %0, ptr %4, align 8, !tbaa !34
  store i64 %1, ptr %5, align 8, !tbaa !33
  store i32 %2, ptr %6, align 4, !tbaa !36
  %9 = load ptr, ptr %4, align 8
  %10 = getelementptr inbounds nuw %"struct.std::__atomic_base", ptr %9, i32 0, i32 0
  %11 = load i32, ptr %6, align 4, !tbaa !36
  %12 = load i64, ptr %5, align 8, !tbaa !33
  store i64 %12, ptr %7, align 8, !tbaa !33
  switch i32 %11, label %13 [
    i32 1, label %16
    i32 2, label %16
    i32 3, label %19
    i32 4, label %22
    i32 5, label %25
  ]

13:                                               ; preds = %3
  %14 = load i64, ptr %7, align 8
  %15 = atomicrmw sub ptr %10, i64 %14 monotonic, align 8
  store i64 %15, ptr %8, align 8
  br label %28

16:                                               ; preds = %3, %3
  %17 = load i64, ptr %7, align 8
  %18 = atomicrmw sub ptr %10, i64 %17 acquire, align 8
  store i64 %18, ptr %8, align 8
  br label %28

19:                                               ; preds = %3
  %20 = load i64, ptr %7, align 8
  %21 = atomicrmw sub ptr %10, i64 %20 release, align 8
  store i64 %21, ptr %8, align 8
  br label %28

22:                                               ; preds = %3
  %23 = load i64, ptr %7, align 8
  %24 = atomicrmw sub ptr %10, i64 %23 acq_rel, align 8
  store i64 %24, ptr %8, align 8
  br label %28

25:                                               ; preds = %3
  %26 = load i64, ptr %7, align 8
  %27 = atomicrmw sub ptr %10, i64 %26 seq_cst, align 8
  store i64 %27, ptr %8, align 8
  br label %28

28:                                               ; preds = %25, %22, %19, %16, %13
  %29 = load i64, ptr %8, align 8, !tbaa !33
  ret i64 %29
}

; Function Attrs: mustprogress nounwind uwtable
define void @_ZN5folly6detail17CancellationState28unlockAndDecrementTokenCountEv(ptr noundef nonnull align 8 dereferenceable(32) %0) #0 align 2 {
  %2 = alloca ptr, align 8
  %3 = alloca i64, align 8
  store ptr %0, ptr %2, align 8, !tbaa !7
  %4 = load ptr, ptr %2, align 8
  call void @llvm.lifetime.start.p0(i64 8, ptr %3) #20
  %5 = getelementptr inbounds nuw %"class.folly::detail::CancellationState", ptr %4, i32 0, i32 1
  %6 = call noundef i64 @_ZNSt13__atomic_baseImE9fetch_subEmSt12memory_order(ptr noundef nonnull align 8 dereferenceable(8) %5, i64 noundef 10, i32 noundef 4) #20
  store i64 %6, ptr %3, align 8, !tbaa !33
  %7 = load i64, ptr %3, align 8, !tbaa !33
  %8 = icmp ult i64 %7, 18
  br i1 %8, label %9, label %23

9:                                                ; preds = %1
  %10 = load i64, ptr %3, align 8, !tbaa !33
  %11 = and i64 %10, 4
  %12 = call i64 @llvm.expect.i64(i64 %11, i64 0)
  %13 = icmp ne i64 %12, 0
  br i1 %13, label %14, label %15

14:                                               ; preds = %9
  call void @_ZN5folly6detail24MergingCancellationState7destroyEv(ptr noundef nonnull align 16 dereferenceable(40) %4) #20
  br label %22

15:                                               ; preds = %9
  %16 = icmp eq ptr %4, null
  br i1 %16, label %21, label %17

17:                                               ; preds = %15
  %18 = load ptr, ptr %4, align 8, !tbaa !14
  %19 = getelementptr inbounds ptr, ptr %18, i64 1
  %20 = load ptr, ptr %19, align 8
  call void %20(ptr noundef nonnull align 8 dereferenceable(32) %4) #20
  br label %21

21:                                               ; preds = %17, %15
  br label %22

22:                                               ; preds = %21, %14
  br label %23

23:                                               ; preds = %22, %1
  call void @llvm.lifetime.end.p0(i64 8, ptr %3) #20
  ret void
}