; Function Attrs: mustprogress nounwind uwtable
define void @_ZN5folly6detail17CancellationState28unlockAndDecrementTokenCountEv(ptr noundef nonnull align 8 dereferenceable(32) %0) local_unnamed_addr #0 align 2 personality ptr @__gxx_personality_v0 {
  %2 = getelementptr inbounds nuw i8, ptr %0, i64 8
  %3 = atomicrmw sub ptr %2, i64 10 acq_rel, align 8
  %4 = icmp ult i64 %3, 18
  br i1 %4, label %5, label %19

5:                                                ; preds = %1
  %6 = and i64 %3, 4
  %.not = icmp eq i64 %6, 0
  br i1 %.not, label %15, label %7, !prof !41

7:                                                ; preds = %5
  %8 = getelementptr inbounds nuw i8, ptr %0, i64 32
  %9 = load ptr, ptr %8, align 16, !tbaa !42
  %10 = ptrtoint ptr %9 to i64
  %11 = ptrtoint ptr %0 to i64
  %12 = sub i64 %10, %11
  %13 = load ptr, ptr %0, align 16, !tbaa !7
  %14 = load ptr, ptr %13, align 8
  tail call void %14(ptr noundef nonnull align 16 dereferenceable(40) %0) #14
  tail call void @_ZdlPvm(ptr noundef nonnull align 16 dereferenceable(40) %0, i64 noundef %12) #14
  br label %19

15:                                               ; preds = %5
  %16 = load ptr, ptr %0, align 8, !tbaa !7
  %17 = getelementptr inbounds nuw i8, ptr %16, i64 8
  %18 = load ptr, ptr %17, align 8
  tail call void %18(ptr noundef nonnull align 8 dereferenceable(32) %0) #14
  br label %19

19:                                               ; preds = %7, %15, %1
  ret void
}